target datalayout = "e-m:e-p270:32:32-p271:32:32-p272:64:64-i64:64-i128:128-f80:128-n8:16:32:64-S128"
target triple = "x86_64-pc-linux-gnu"

%struct._h248_curr_info_t = type { ptr, ptr, ptr, ptr, ptr, ptr, ptr, ptr, ptr, ptr }
%struct._h248_pkg_param_t = type { i32, ptr, ptr, ptr }
%struct._h248_pkg_sig_t = type { i32, ptr, ptr, ptr, ptr }
%struct._packet_info = type { ptr, ptr, i32, i32, %struct.nstime_t, %struct.nstime_t, %struct.nstime_t, i32, ptr, ptr, ptr, ptr, %struct._address, %struct._address, %struct._address, %struct._address, %struct._address, %struct._address, i32, ptr, i32, %struct.anon, i32, i32, i32, i32, ptr, i32, ptr, ptr, i16, i16, i32, i32, i16, i32, i32, ptr, ptr, ptr, i8, i8, i16, i16, i16, i32, i16, i16, ptr, ptr, ptr, ptr, ptr, i32 }
%struct.nstime_t = type { i64, i32 }
%struct._address = type { i32, i32, ptr, ptr }
%struct.anon = type { i8, [3 x i8] }
%struct._asn1_ctx_t = type { i32, i32, i8, ptr, ptr, ptr, ptr, ptr, %struct.anon.2, %struct.anon.5, %struct.anon.6, ptr }
%struct.anon.2 = type { i32, i8, i8, i8, ptr, ptr, i32, i32, ptr, ptr, ptr, %union.anon }
%union.anon = type { %struct.anon.3 }
%struct.anon.3 = type { ptr }
%struct.anon.5 = type { ptr, ptr, ptr }
%struct.anon.6 = type { i32, i8, ptr, i32, i32, ptr, ptr, ptr, %union.anon.7 }
%union.anon.7 = type { %struct.anon.8 }
%struct.anon.8 = type { ptr }

@.str.44 = private unnamed_addr constant [8 x i8] c"%s (%d)\00", align 1
@.str.45 = private unnamed_addr constant [13 x i8] c"Unknown (%d)\00", align 1
@curr_info = internal global %struct._h248_curr_info_t zeroinitializer, align 8
@.str.1318 = private unnamed_addr constant [14 x i8] c"Parameter: %s\00", align 1
@no_param = internal constant %struct._h248_pkg_param_t { i32 0, ptr @hf_h248_param, ptr @h248_param_uint_item, ptr null }, align 8

; Function Attrs: nounwind uwtable
define internal i32 @dissect_h248_SigParameterName(i1 noundef zeroext %0, ptr noundef %1, i32 noundef %2, ptr noundef %3, ptr noundef %4, i32 noundef %5) #0 {
  %7 = alloca i8, align 1
  %8 = alloca ptr, align 8
  %9 = alloca i32, align 4
  %10 = alloca ptr, align 8
  %11 = alloca ptr, align 8
  %12 = alloca i32, align 4
  %13 = alloca ptr, align 8
  %14 = alloca i32, align 4
  %15 = alloca ptr, align 8
  %16 = alloca ptr, align 8
  %17 = alloca ptr, align 8
  %18 = zext i1 %0 to i8
  store i8 %18, ptr %7, align 1
  store ptr %1, ptr %8, align 8
  store i32 %2, ptr %9, align 4
  store ptr %3, ptr %10, align 8
  store ptr %4, ptr %11, align 8
  store i32 %5, ptr %12, align 4
  store i32 -1, ptr %14, align 4
  %19 = load i8, ptr %7, align 1
  %20 = trunc i8 %19 to i1
  %21 = load ptr, ptr %10, align 8
  %22 = load ptr, ptr %11, align 8
  %23 = load ptr, ptr %8, align 8
  %24 = load i32, ptr %9, align 4
  %25 = load i32, ptr %12, align 4
  %26 = call i32 @dissect_ber_octet_string(i1 noundef zeroext %20, ptr noundef %21, ptr noundef %22, ptr noundef %23, i32 noundef %24, i32 noundef %25, ptr noundef %13)
  store i32 %26, ptr %9, align 4
  %27 = load ptr, ptr %10, align 8
  %28 = getelementptr inbounds %struct._asn1_ctx_t, ptr %27, i32 0, i32 4
  %29 = load ptr, ptr %28, align 8
  store ptr %29, ptr %17, align 8
  %30 = load ptr, ptr %13, align 8
  %31 = call i32 @tvb_reported_length(ptr noundef %30)
  switch i32 %31, label %46 [
    i32 4, label %32
    i32 3, label %35
    i32 2, label %38
    i32 1, label %42
  ]

32:                                               ; preds = %6
  %33 = load ptr, ptr %13, align 8
  %34 = call i32 @tvb_get_ntohl(ptr noundef %33, i32 noundef 0)
  store i32 %34, ptr %14, align 4
  br label %47

35:                                               ; preds = %6
  %36 = load ptr, ptr %13, align 8
  %37 = call i32 @tvb_get_ntoh24(ptr noundef %36, i32 noundef 0)
  store i32 %37, ptr %14, align 4
  br label %47

38:                                               ; preds = %6
  %39 = load ptr, ptr %13, align 8
  %40 = call zeroext i16 @tvb_get_ntohs(ptr noundef %39, i32 noundef 0)
  %41 = zext i16 %40 to i32
  store i32 %41, ptr %14, align 4
  br label %47

42:                                               ; preds = %6
  %43 = load ptr, ptr %13, align 8
  %44 = call zeroext i8 @tvb_get_guint8(ptr noundef %43, i32 noundef 0)
  %45 = zext i8 %44 to i32
  store i32 %45, ptr %14, align 4
  br label %47

46:                                               ; preds = %6
  br label %47

47:                                               ; preds = %46, %42, %38, %35, %32
  %48 = getelementptr inbounds %struct._h248_curr_info_t, ptr @curr_info, i32 0, i32 9
  store ptr @no_param, ptr %48, align 8
  %49 = getelementptr inbounds %struct._h248_curr_info_t, ptr @curr_info, i32 0, i32 7
  %50 = load ptr, ptr %49, align 8
  %51 = icmp ne ptr %50, null
  br i1 %51, label %52, label %82

52:                                               ; preds = %47
  %53 = getelementptr inbounds %struct._h248_curr_info_t, ptr @curr_info, i32 0, i32 7
  %54 = load ptr, ptr %53, align 8
  %55 = getelementptr inbounds %struct._h248_pkg_sig_t, ptr %54, i32 0, i32 3
  %56 = load ptr, ptr %55, align 8
  %57 = icmp ne ptr %56, null
  br i1 %57, label %58, label %82

58:                                               ; preds = %52
  %59 = getelementptr inbounds %struct._h248_curr_info_t, ptr @curr_info, i32 0, i32 7
  %60 = load ptr, ptr %59, align 8
  %61 = getelementptr inbounds %struct._h248_pkg_sig_t, ptr %60, i32 0, i32 3
  %62 = load ptr, ptr %61, align 8
  store ptr %62, ptr %15, align 8
  br label %63

63:                                               ; preds = %78, %58
  %64 = load ptr, ptr %15, align 8
  %65 = getelementptr inbounds %struct._h248_pkg_param_t, ptr %64, i32 0, i32 1
  %66 = load ptr, ptr %65, align 8
  %67 = icmp ne ptr %66, null
  br i1 %67, label %68, label %81

68:                                               ; preds = %63
  %69 = load ptr, ptr %15, align 8
  %70 = getelementptr inbounds %struct._h248_pkg_param_t, ptr %69, i32 0, i32 0
  %71 = load i32, ptr %70, align 8
  %72 = load i32, ptr %14, align 4
  %73 = icmp eq i32 %71, %72
  br i1 %73, label %74, label %77

74:                                               ; preds = %68
  %75 = load ptr, ptr %15, align 8
  %76 = getelementptr inbounds %struct._h248_curr_info_t, ptr @curr_info, i32 0, i32 9
  store ptr %75, ptr %76, align 8
  br label %81

77:                                               ; preds = %68
  br label %78

78:                                               ; preds = %77
  %79 = load ptr, ptr %15, align 8
  %80 = getelementptr %struct._h248_pkg_param_t, ptr %79, i32 1
  store ptr %80, ptr %15, align 8
  br label %63, !llvm.loop !33

81:                                               ; preds = %74, %63
  br label %82

82:                                               ; preds = %81, %52, %47
  %83 = getelementptr inbounds %struct._h248_curr_info_t, ptr @curr_info, i32 0, i32 7
  %84 = load ptr, ptr %83, align 8
  %85 = icmp ne ptr %84, null
  br i1 %85, label %86, label %109

86:                                               ; preds = %82
  %87 = getelementptr inbounds %struct._h248_curr_info_t, ptr @curr_info, i32 0, i32 7
  %88 = load ptr, ptr %87, align 8
  %89 = getelementptr inbounds %struct._h248_pkg_sig_t, ptr %88, i32 0, i32 4
  %90 = load ptr, ptr %89, align 8
  %91 = icmp ne ptr %90, null
  br i1 %91, label %92, label %109

92:                                               ; preds = %86
  %93 = load i32, ptr %14, align 4
  %94 = getelementptr inbounds %struct._h248_curr_info_t, ptr @curr_info, i32 0, i32 7
  %95 = load ptr, ptr %94, align 8
  %96 = getelementptr inbounds %struct._h248_pkg_sig_t, ptr %95, i32 0, i32 4
  %97 = load ptr, ptr %96, align 8
  %98 = call ptr @try_val_to_str(i32 noundef %93, ptr noundef %97)
  store ptr %98, ptr %16, align 8
  %99 = icmp ne ptr %98, null
  br i1 %99, label %100, label %109

100:                                              ; preds = %92
  %101 = load ptr, ptr %10, align 8
  %102 = getelementptr inbounds %struct._asn1_ctx_t, ptr %101, i32 0, i32 3
  %103 = load ptr, ptr %102, align 8
  %104 = getelementptr inbounds %struct._packet_info, ptr %103, i32 0, i32 50
  %105 = load ptr, ptr %104, align 8
  %106 = load ptr, ptr %16, align 8
  %107 = load i32, ptr %14, align 4
  %108 = call noalias ptr (ptr, ptr, ...) @wmem_strdup_printf(ptr noundef %105, ptr noundef @.str.44, ptr noundef %106, i32 noundef %107)
  store ptr %108, ptr %16, align 8
  br label %117

109:                                              ; preds = %92, %86, %82
  %110 = load ptr, ptr %10, align 8
  %111 = getelementptr inbounds %struct._asn1_ctx_t, ptr %110, i32 0, i32 3
  %112 = load ptr, ptr %111, align 8
  %113 = getelementptr inbounds %struct._packet_info, ptr %112, i32 0, i32 50
  %114 = load ptr, ptr %113, align 8
  %115 = load i32, ptr %14, align 4
  %116 = call noalias ptr (ptr, ptr, ...) @wmem_strdup_printf(ptr noundef %114, ptr noundef @.str.45, i32 noundef %115)
  store ptr %116, ptr %16, align 8
  br label %117

117:                                              ; preds = %109, %100
  %118 = load ptr, ptr %17, align 8
  %119 = load ptr, ptr %16, align 8
  call void (ptr, ptr, ...) @proto_item_set_text(ptr noundef %118, ptr noundef @.str.1318, ptr noundef %119)
  %120 = load i32, ptr %9, align 4
  ret i32 %120
}