; Function Attrs: nounwind uwtable
define internal i32 @dissect_h248_SigParameterName(i1 noundef zeroext %0, ptr noundef %1, i32 noundef %2, ptr noundef %3, ptr noundef %4, i32 noundef %5) #0 {
  %7 = alloca ptr, align 8
  %8 = call i32 @dissect_ber_octet_string(i1 noundef zeroext %0, ptr noundef %3, ptr noundef %4, ptr noundef %1, i32 noundef %2, i32 noundef %5, ptr noundef nonnull %7) #7
  %9 = getelementptr inbounds nuw i8, ptr %3, i64 24
  %10 = load ptr, ptr %9, align 8
  %11 = load ptr, ptr %7, align 8
  %12 = call i32 @tvb_reported_length(ptr noundef %11) #7
  switch i32 %12, label %27 [
    i32 4, label %13
    i32 3, label %16
    i32 2, label %19
    i32 1, label %23
  ]

13:                                               ; preds = %6
  %14 = load ptr, ptr %7, align 8
  %15 = call i32 @tvb_get_ntohl(ptr noundef %14, i32 noundef 0) #7
  br label %27

16:                                               ; preds = %6
  %17 = load ptr, ptr %7, align 8
  %18 = call i32 @tvb_get_ntoh24(ptr noundef %17, i32 noundef 0) #7
  br label %27

19:                                               ; preds = %6
  %20 = load ptr, ptr %7, align 8
  %21 = call zeroext i16 @tvb_get_ntohs(ptr noundef %20, i32 noundef 0) #7
  %22 = zext i16 %21 to i32
  br label %27

23:                                               ; preds = %6
  %24 = load ptr, ptr %7, align 8
  %25 = call zeroext i8 @tvb_get_guint8(ptr noundef %24, i32 noundef 0) #7
  %26 = zext i8 %25 to i32
  br label %27

27:                                               ; preds = %6, %23, %19, %16, %13
  %.021 = phi i32 [ -1, %6 ], [ %26, %23 ], [ %22, %19 ], [ %18, %16 ], [ %15, %13 ]
  store ptr @no_param, ptr getelementptr inbounds nuw (i8, ptr @curr_info, i64 72), align 8
  %28 = load ptr, ptr getelementptr inbounds nuw (i8, ptr @curr_info, i64 56), align 8
  %.not = icmp eq ptr %28, null
  br i1 %.not, label %.thread, label %29

29:                                               ; preds = %27
  %30 = getelementptr inbounds nuw i8, ptr %28, i64 24
  %31 = load ptr, ptr %30, align 8
  %.not27 = icmp eq ptr %31, null
  br i1 %.not27, label %.thread32, label %.preheader

.preheader:                                       ; preds = %29
  %32 = getelementptr inbounds nuw i8, ptr %31, i64 8
  %33 = load ptr, ptr %32, align 8
  %.not2834 = icmp eq ptr %33, null
  br i1 %.not2834, label %.thread32, label %.lr.ph

.lr.ph:                                           ; preds = %.preheader, %37
  %.02035 = phi ptr [ %38, %37 ], [ %31, %.preheader ]
  %34 = load i32, ptr %.02035, align 8
  %35 = icmp eq i32 %34, %.021
  br i1 %35, label %36, label %37

36:                                               ; preds = %.lr.ph
  store ptr %.02035, ptr getelementptr inbounds nuw (i8, ptr @curr_info, i64 72), align 8
  br label %.thread32

37:                                               ; preds = %.lr.ph
  %38 = getelementptr i8, ptr %.02035, i64 32
  %39 = getelementptr i8, ptr %.02035, i64 40
  %40 = load ptr, ptr %39, align 8
  %.not28 = icmp eq ptr %40, null
  br i1 %.not28, label %.thread32, label %.lr.ph, !llvm.loop !33

.thread32:                                        ; preds = %37, %.preheader, %36, %29
  %41 = getelementptr inbounds nuw i8, ptr %28, i64 32
  %42 = load ptr, ptr %41, align 8
  %.not30 = icmp eq ptr %42, null
  br i1 %.not30, label %.thread, label %43

43:                                               ; preds = %.thread32
  %44 = call ptr @try_val_to_str(i32 noundef %.021, ptr noundef nonnull %42) #7
  %.not31 = icmp eq ptr %44, null
  br i1 %.not31, label %.thread, label %45

45:                                               ; preds = %43
  %46 = getelementptr inbounds nuw i8, ptr %3, i64 16
  %47 = load ptr, ptr %46, align 8
  %48 = getelementptr inbounds nuw i8, ptr %47, i64 408
  %49 = load ptr, ptr %48, align 8
  %50 = call noalias ptr (ptr, ptr, ...) @wmem_strdup_printf(ptr noundef %49, ptr noundef nonnull @.str.44, ptr noundef nonnull %44, i32 noundef %.021) #7
  br label %56

.thread:                                          ; preds = %27, %43, %.thread32
  %51 = getelementptr inbounds nuw i8, ptr %3, i64 16
  %52 = load ptr, ptr %51, align 8
  %53 = getelementptr inbounds nuw i8, ptr %52, i64 408
  %54 = load ptr, ptr %53, align 8
  %55 = call noalias ptr (ptr, ptr, ...) @wmem_strdup_printf(ptr noundef %54, ptr noundef nonnull @.str.45, i32 noundef %.021) #7
  br label %56

56:                                               ; preds = %.thread, %45
  %.0 = phi ptr [ %50, %45 ], [ %55, %.thread ]
  call void (ptr, ptr, ...) @proto_item_set_text(ptr noundef %10, ptr noundef nonnull @.str.1318, ptr noundef %.0) #7
  ret i32 %8
}